target datalayout = "e-m:e-p270:32:32-p271:32:32-p272:64:64-i64:64-i128:128-f80:128-n8:16:32:64-S128"
target triple = "x86_64-pc-linux-gnu"

%struct._longobject = type { %struct.PyVarObject, [1 x i32] }
%struct.PyVarObject = type { %struct._object, i64 }
%struct._object = type { i64, ptr }
%struct._typeobject = type { %struct.PyVarObject, ptr, i64, i64, ptr, i64, ptr, ptr, ptr, ptr, ptr, ptr, ptr, ptr, ptr, ptr, ptr, ptr, ptr, i64, ptr, ptr, ptr, ptr, i64, ptr, ptr, ptr, ptr, ptr, ptr, ptr, ptr, ptr, i64, ptr, ptr, ptr, ptr, ptr, ptr, ptr, ptr, ptr, ptr, ptr, i32, ptr, ptr }

@PyFloat_Type = external global %struct._typeobject, align 8
@PyLong_Type = external global %struct._typeobject, align 8

; Function Attrs: inlinehint mustprogress nounwind uwtable
define linkonce_odr noundef i64 @_ZSt3absl(i64 noundef %0) #9 comdat {
  %2 = alloca i64, align 8
  store i64 %0, ptr %2, align 8
  %3 = load i64, ptr %2, align 8
  %4 = call i64 @llvm.abs.i64(i64 %3, i1 true)
  ret i64 %4
}

; Function Attrs: inlinehint mustprogress uwtable
define internal void @_ZL10_Py_DECREFP7_object(ptr noundef %0) #13 {
  %2 = alloca ptr, align 8
  store ptr %0, ptr %2, align 8
  %3 = load ptr, ptr %2, align 8
  %4 = getelementptr inbounds nuw %struct._object, ptr %3, i32 0, i32 0
  %5 = load i64, ptr %4, align 8
  %6 = add nsw i64 %5, -1
  store i64 %6, ptr %4, align 8
  %7 = icmp ne i64 %6, 0
  br i1 %7, label %8, label %9

8:                                                ; preds = %1
  br label %11

9:                                                ; preds = %1
  %10 = load ptr, ptr %2, align 8
  call void @_Py_Dealloc(ptr noundef %10)
  br label %11

11:                                               ; preds = %9, %8
  ret void
}

; Function Attrs: alwaysinline mustprogress nounwind uwtable
define linkonce_odr hidden noundef zeroext i1 @_ZN8nanobind6detail8load_intIhLb0EEEbP7_objectjPT_(ptr noundef %0, i32 noundef %1, ptr noundef %2) #18 comdat personality ptr @__gxx_personality_v0 {
  %4 = alloca i1, align 1
  %5 = alloca ptr, align 8
  %6 = alloca i32, align 4
  %7 = alloca ptr, align 8
  %8 = alloca ptr, align 8
  %9 = alloca i64, align 8
  %10 = alloca i8, align 1
  %11 = alloca i32, align 4
  %12 = alloca i64, align 8
  %13 = alloca i8, align 1
  store ptr %0, ptr %5, align 8
  store i32 %1, ptr %6, align 4
  store ptr %2, ptr %7, align 8
  %14 = load ptr, ptr %5, align 8
  %15 = call noundef i32 @_ZL11_Py_IS_TYPEPK7_objectPK11_typeobject(ptr noundef %14, ptr noundef @PyLong_Type)
  %16 = icmp ne i32 %15, 0
  %17 = zext i1 %16 to i64
  %18 = call i64 @llvm.expect.i64(i64 %17, i64 1)
  %19 = icmp ne i64 %18, 0
  br i1 %19, label %20, label %76

20:                                               ; preds = %3
  call void @llvm.lifetime.start.p0(i64 8, ptr %8) #20
  %21 = load ptr, ptr %5, align 8
  store ptr %21, ptr %8, align 8
  %22 = load ptr, ptr %8, align 8
  %23 = invoke noundef zeroext i1 @_ZN8nanobind6detail25PyUnstable_Long_IsCompactEPK11_longobject(ptr noundef %22)
          to label %24 unwind label %79

24:                                               ; preds = %20
  %25 = zext i1 %23 to i64
  %26 = call i64 @llvm.expect.i64(i64 %25, i64 1)
  %27 = icmp ne i64 %26, 0
  br i1 %27, label %28, label %50

28:                                               ; preds = %24
  call void @llvm.lifetime.start.p0(i64 8, ptr %9) #20
  %29 = load ptr, ptr %8, align 8
  %30 = call noundef i64 @_ZN8nanobind6detail28PyUnstable_Long_CompactValueEPK11_longobject(ptr noundef %29)
  store i64 %30, ptr %9, align 8
  call void @llvm.lifetime.start.p0(i64 1, ptr %10) #20
  %31 = load i64, ptr %9, align 8
  %32 = trunc i64 %31 to i8
  store i8 %32, ptr %10, align 1
  %33 = load i64, ptr %9, align 8
  %34 = icmp slt i64 %33, 0
  br i1 %34, label %40, label %35

35:                                               ; preds = %28
  %36 = load i64, ptr %9, align 8
  %37 = load i8, ptr %10, align 1
  %38 = zext i8 %37 to i64
  %39 = icmp ne i64 %36, %38
  br label %40

40:                                               ; preds = %35, %28
  %41 = phi i1 [ true, %28 ], [ %39, %35 ]
  %42 = zext i1 %41 to i64
  %43 = call i64 @llvm.expect.i64(i64 %42, i64 0)
  %44 = icmp ne i64 %43, 0
  br i1 %44, label %45, label %46

45:                                               ; preds = %40
  store i1 false, ptr %4, align 1
  store i32 1, ptr %11, align 4
  br label %49

46:                                               ; preds = %40
  %47 = load i8, ptr %10, align 1
  %48 = load ptr, ptr %7, align 8
  store i8 %47, ptr %48, align 1
  store i1 true, ptr %4, align 1
  store i32 1, ptr %11, align 4
  br label %49

49:                                               ; preds = %46, %45
  call void @llvm.lifetime.end.p0(i64 1, ptr %10) #20
  call void @llvm.lifetime.end.p0(i64 8, ptr %9) #20
  br label %75

50:                                               ; preds = %24
  call void @llvm.lifetime.start.p0(i64 8, ptr %12) #20
  %51 = load ptr, ptr %5, align 8
  %52 = invoke i64 @PyLong_AsUnsignedLong(ptr noundef %51)
          to label %53 unwind label %79

53:                                               ; preds = %50
  store i64 %52, ptr %12, align 8
  %54 = load i64, ptr %12, align 8
  %55 = icmp eq i64 %54, -1
  br i1 %55, label %56, label %62

56:                                               ; preds = %53
  %57 = invoke ptr @PyErr_Occurred()
          to label %58 unwind label %79

58:                                               ; preds = %56
  %59 = icmp ne ptr %57, null
  br i1 %59, label %60, label %62

60:                                               ; preds = %58
  invoke void @PyErr_Clear()
          to label %61 unwind label %79

61:                                               ; preds = %60
  store i1 false, ptr %4, align 1
  store i32 1, ptr %11, align 4
  br label %74

62:                                               ; preds = %58, %53
  call void @llvm.lifetime.start.p0(i64 1, ptr %13) #20
  %63 = load i64, ptr %12, align 8
  %64 = trunc i64 %63 to i8
  store i8 %64, ptr %13, align 1
  %65 = load i64, ptr %12, align 8
  %66 = load i8, ptr %13, align 1
  %67 = zext i8 %66 to i64
  %68 = icmp ne i64 %65, %67
  br i1 %68, label %69, label %70

69:                                               ; preds = %62
  store i1 false, ptr %4, align 1
  store i32 1, ptr %11, align 4
  br label %73

70:                                               ; preds = %62
  %71 = load i8, ptr %13, align 1
  %72 = load ptr, ptr %7, align 8
  store i8 %71, ptr %72, align 1
  store i1 true, ptr %4, align 1
  store i32 1, ptr %11, align 4
  br label %73

73:                                               ; preds = %70, %69
  call void @llvm.lifetime.end.p0(i64 1, ptr %13) #20
  br label %74

74:                                               ; preds = %73, %61
  call void @llvm.lifetime.end.p0(i64 8, ptr %12) #20
  br label %75

75:                                               ; preds = %74, %49
  call void @llvm.lifetime.end.p0(i64 8, ptr %8) #20
  br label %77

76:                                               ; preds = %3
  store i1 false, ptr %4, align 1
  br label %77

77:                                               ; preds = %76, %75
  %78 = load i1, ptr %4, align 1
  ret i1 %78

79:                                               ; preds = %60, %56, %50, %20
  %80 = landingpad { ptr, i32 }
          catch ptr null
  %81 = extractvalue { ptr, i32 } %80, 0
  call void @__clang_call_terminate(ptr %81) #22
  unreachable
}

; Function Attrs: inlinehint mustprogress uwtable
define internal noundef i32 @_ZL19_PyObject_TypeCheckP7_objectP11_typeobject(ptr noundef %0, ptr noundef %1) #13 {
  %3 = alloca ptr, align 8
  %4 = alloca ptr, align 8
  store ptr %0, ptr %3, align 8
  store ptr %1, ptr %4, align 8
  %5 = load ptr, ptr %3, align 8
  %6 = load ptr, ptr %4, align 8
  %7 = call noundef i32 @_ZL11_Py_IS_TYPEPK7_objectPK11_typeobject(ptr noundef %5, ptr noundef %6)
  %8 = icmp ne i32 %7, 0
  br i1 %8, label %16, label %9

9:                                                ; preds = %2
  %10 = load ptr, ptr %3, align 8
  %11 = getelementptr inbounds nuw %struct._object, ptr %10, i32 0, i32 1
  %12 = load ptr, ptr %11, align 8
  %13 = load ptr, ptr %4, align 8
  %14 = call i32 @PyType_IsSubtype(ptr noundef %12, ptr noundef %13)
  %15 = icmp ne i32 %14, 0
  br label %16

16:                                               ; preds = %9, %2
  %17 = phi i1 [ true, %2 ], [ %15, %9 ]
  %18 = zext i1 %17 to i32
  ret i32 %18
}

; Function Attrs: alwaysinline mustprogress nounwind uwtable
define linkonce_odr hidden noundef i64 @_ZN8nanobind6detail28PyUnstable_Long_CompactValueEPK11_longobject(ptr noundef %0) #18 comdat {
  %2 = alloca ptr, align 8
  store ptr %0, ptr %2, align 8
  %3 = load ptr, ptr %2, align 8
  %4 = getelementptr inbounds nuw %struct.PyVarObject, ptr %3, i32 0, i32 1
  %5 = load i64, ptr %4, align 8
  %6 = load ptr, ptr %2, align 8
  %7 = getelementptr inbounds nuw %struct._longobject, ptr %6, i32 0, i32 1
  %8 = getelementptr inbounds [1 x i32], ptr %7, i64 0, i64 0
  %9 = load i32, ptr %8, align 8
  %10 = zext i32 %9 to i64
  %11 = mul nsw i64 %5, %10
  ret i64 %11
}

; Function Attrs: alwaysinline mustprogress uwtable
define linkonce_odr hidden noundef zeroext i1 @_ZN8nanobind6detail25PyUnstable_Long_IsCompactEPK11_longobject(ptr noundef %0) #17 comdat {
  %2 = alloca ptr, align 8
  store ptr %0, ptr %2, align 8
  %3 = load ptr, ptr %2, align 8
  %4 = getelementptr inbounds nuw %struct.PyVarObject, ptr %3, i32 0, i32 1
  %5 = load i64, ptr %4, align 8
  %6 = call noundef i64 @_ZSt3absl(i64 noundef %5)
  %7 = icmp sle i64 %6, 1
  ret i1 %7
}

; Function Attrs: inlinehint mustprogress nounwind uwtable
define internal noundef i32 @_ZL11_Py_IS_TYPEPK7_objectPK11_typeobject(ptr noundef %0, ptr noundef %1) #9 {
  %3 = alloca ptr, align 8
  %4 = alloca ptr, align 8
  store ptr %0, ptr %3, align 8
  store ptr %1, ptr %4, align 8
  %5 = load ptr, ptr %3, align 8
  %6 = getelementptr inbounds nuw %struct._object, ptr %5, i32 0, i32 1
  %7 = load ptr, ptr %6, align 8
  %8 = load ptr, ptr %4, align 8
  %9 = icmp eq ptr %7, %8
  %10 = zext i1 %9 to i32
  ret i32 %10
}

; Function Attrs: alwaysinline mustprogress nounwind uwtable
define linkonce_odr hidden noundef zeroext i1 @_ZN8nanobind6detail8load_intIhLb1EEEbP7_objectjPT_(ptr noundef %0, i32 noundef %1, ptr noundef %2) #18 comdat personality ptr @__gxx_personality_v0 {
  %4 = alloca i1, align 1
  %5 = alloca ptr, align 8
  %6 = alloca i32, align 4
  %7 = alloca ptr, align 8
  %8 = alloca ptr, align 8
  %9 = alloca i64, align 8
  %10 = alloca i8, align 1
  %11 = alloca i32, align 4
  %12 = alloca i64, align 8
  %13 = alloca i8, align 1
  %14 = alloca ptr, align 8
  %15 = alloca i8, align 1
  store ptr %0, ptr %5, align 8
  store i32 %1, ptr %6, align 4
  store ptr %2, ptr %7, align 8
  %16 = load ptr, ptr %5, align 8
  %17 = call noundef i32 @_ZL11_Py_IS_TYPEPK7_objectPK11_typeobject(ptr noundef %16, ptr noundef @PyLong_Type)
  %18 = icmp ne i32 %17, 0
  %19 = zext i1 %18 to i64
  %20 = call i64 @llvm.expect.i64(i64 %19, i64 1)
  %21 = icmp ne i64 %20, 0
  br i1 %21, label %22, label %79

22:                                               ; preds = %3
  call void @llvm.lifetime.start.p0(i64 8, ptr %8) #20
  %23 = load ptr, ptr %5, align 8
  store ptr %23, ptr %8, align 8
  %24 = load ptr, ptr %8, align 8
  %25 = invoke noundef zeroext i1 @_ZN8nanobind6detail25PyUnstable_Long_IsCompactEPK11_longobject(ptr noundef %24)
          to label %26 unwind label %112

26:                                               ; preds = %22
  %27 = zext i1 %25 to i64
  %28 = call i64 @llvm.expect.i64(i64 %27, i64 1)
  %29 = icmp ne i64 %28, 0
  br i1 %29, label %30, label %53

30:                                               ; preds = %26
  call void @llvm.lifetime.start.p0(i64 8, ptr %9) #20
  %31 = load ptr, ptr %8, align 8
  %32 = invoke noundef i64 @_ZN8nanobind6detail28PyUnstable_Long_CompactValueEPK11_longobject(ptr noundef %31)
          to label %33 unwind label %112

33:                                               ; preds = %30
  store i64 %32, ptr %9, align 8
  call void @llvm.lifetime.start.p0(i64 1, ptr %10) #20
  %34 = load i64, ptr %9, align 8
  %35 = trunc i64 %34 to i8
  store i8 %35, ptr %10, align 1
  %36 = load i64, ptr %9, align 8
  %37 = icmp slt i64 %36, 0
  br i1 %37, label %43, label %38

38:                                               ; preds = %33
  %39 = load i64, ptr %9, align 8
  %40 = load i8, ptr %10, align 1
  %41 = zext i8 %40 to i64
  %42 = icmp ne i64 %39, %41
  br label %43

43:                                               ; preds = %38, %33
  %44 = phi i1 [ true, %33 ], [ %42, %38 ]
  %45 = zext i1 %44 to i64
  %46 = call i64 @llvm.expect.i64(i64 %45, i64 0)
  %47 = icmp ne i64 %46, 0
  br i1 %47, label %48, label %49

48:                                               ; preds = %43
  store i1 false, ptr %4, align 1
  store i32 1, ptr %11, align 4
  br label %52

49:                                               ; preds = %43
  %50 = load i8, ptr %10, align 1
  %51 = load ptr, ptr %7, align 8
  store i8 %50, ptr %51, align 1
  store i1 true, ptr %4, align 1
  store i32 1, ptr %11, align 4
  br label %52

52:                                               ; preds = %49, %48
  call void @llvm.lifetime.end.p0(i64 1, ptr %10) #20
  call void @llvm.lifetime.end.p0(i64 8, ptr %9) #20
  br label %78

53:                                               ; preds = %26
  call void @llvm.lifetime.start.p0(i64 8, ptr %12) #20
  %54 = load ptr, ptr %5, align 8
  %55 = invoke i64 @PyLong_AsUnsignedLong(ptr noundef %54)
          to label %56 unwind label %112

56:                                               ; preds = %53
  store i64 %55, ptr %12, align 8
  %57 = load i64, ptr %12, align 8
  %58 = icmp eq i64 %57, -1
  br i1 %58, label %59, label %65

59:                                               ; preds = %56
  %60 = invoke ptr @PyErr_Occurred()
          to label %61 unwind label %112

61:                                               ; preds = %59
  %62 = icmp ne ptr %60, null
  br i1 %62, label %63, label %65

63:                                               ; preds = %61
  invoke void @PyErr_Clear()
          to label %64 unwind label %112

64:                                               ; preds = %63
  store i1 false, ptr %4, align 1
  store i32 1, ptr %11, align 4
  br label %77

65:                                               ; preds = %61, %56
  call void @llvm.lifetime.start.p0(i64 1, ptr %13) #20
  %66 = load i64, ptr %12, align 8
  %67 = trunc i64 %66 to i8
  store i8 %67, ptr %13, align 1
  %68 = load i64, ptr %12, align 8
  %69 = load i8, ptr %13, align 1
  %70 = zext i8 %69 to i64
  %71 = icmp ne i64 %68, %70
  br i1 %71, label %72, label %73

72:                                               ; preds = %65
  store i1 false, ptr %4, align 1
  store i32 1, ptr %11, align 4
  br label %76

73:                                               ; preds = %65
  %74 = load i8, ptr %13, align 1
  %75 = load ptr, ptr %7, align 8
  store i8 %74, ptr %75, align 1
  store i1 true, ptr %4, align 1
  store i32 1, ptr %11, align 4
  br label %76

76:                                               ; preds = %73, %72
  call void @llvm.lifetime.end.p0(i64 1, ptr %13) #20
  br label %77

77:                                               ; preds = %76, %64
  call void @llvm.lifetime.end.p0(i64 8, ptr %12) #20
  br label %78

78:                                               ; preds = %77, %52
  call void @llvm.lifetime.end.p0(i64 8, ptr %8) #20
  br label %110

79:                                               ; preds = %3
  %80 = load i32, ptr %6, align 4
  %81 = and i32 %80, 1
  %82 = icmp ne i32 %81, 0
  br i1 %82, label %83, label %109

83:                                               ; preds = %79
  %84 = load ptr, ptr %5, align 8
  %85 = invoke noundef i32 @_ZL19_PyObject_TypeCheckP7_objectP11_typeobject(ptr noundef %84, ptr noundef @PyFloat_Type)
          to label %86 unwind label %112

86:                                               ; preds = %83
  %87 = icmp ne i32 %85, 0
  br i1 %87, label %109, label %88

88:                                               ; preds = %86
  call void @llvm.lifetime.start.p0(i64 8, ptr %14) #20
  %89 = load ptr, ptr %5, align 8
  %90 = invoke ptr @PyNumber_Long(ptr noundef %89)
          to label %91 unwind label %112

91:                                               ; preds = %88
  store ptr %90, ptr %14, align 8
  %92 = load ptr, ptr %14, align 8
  %93 = icmp ne ptr %92, null
  br i1 %93, label %94, label %103

94:                                               ; preds = %91
  call void @llvm.lifetime.start.p0(i64 1, ptr %15) #20
  %95 = load ptr, ptr %14, align 8
  %96 = load ptr, ptr %7, align 8
  %97 = call noundef zeroext i1 @_ZN8nanobind6detail8load_intIhLb0EEEbP7_objectjPT_(ptr noundef %95, i32 noundef 0, ptr noundef %96) #20
  %98 = zext i1 %97 to i8
  store i8 %98, ptr %15, align 1
  %99 = load ptr, ptr %14, align 8
  invoke void @_ZL10_Py_DECREFP7_object(ptr noundef %99)
          to label %100 unwind label %112

100:                                              ; preds = %94
  %101 = load i8, ptr %15, align 1, !range !6, !noundef !7
  %102 = trunc i8 %101 to i1
  store i1 %102, ptr %4, align 1
  store i32 1, ptr %11, align 4
  call void @llvm.lifetime.end.p0(i64 1, ptr %15) #20
  br label %106

103:                                              ; preds = %91
  invoke void @PyErr_Clear()
          to label %104 unwind label %112

104:                                              ; preds = %103
  br label %105

105:                                              ; preds = %104
  store i32 0, ptr %11, align 4
  br label %106

106:                                              ; preds = %105, %100
  call void @llvm.lifetime.end.p0(i64 8, ptr %14) #20
  %107 = load i32, ptr %11, align 4
  switch i32 %107, label %115 [
    i32 0, label %108
    i32 1, label %110
  ]

108:                                              ; preds = %106
  br label %109

109:                                              ; preds = %108, %86, %79
  store i1 false, ptr %4, align 1
  br label %110

110:                                              ; preds = %109, %106, %78
  %111 = load i1, ptr %4, align 1
  ret i1 %111

112:                                              ; preds = %103, %94, %88, %83, %63, %59, %53, %30, %22
  %113 = landingpad { ptr, i32 }
          catch ptr null
  %114 = extractvalue { ptr, i32 } %113, 0
  call void @__clang_call_terminate(ptr %114) #22
  unreachable

115:                                              ; preds = %106
  unreachable
}

; Function Attrs: mustprogress nounwind uwtable
define noundef zeroext i1 @_ZN8nanobind6detail7load_u8EP7_objecthPh(ptr noundef %0, i8 noundef zeroext %1, ptr noundef %2) #4 {
  %4 = alloca ptr, align 8
  %5 = alloca i8, align 1
  %6 = alloca ptr, align 8
  store ptr %0, ptr %4, align 8
  store i8 %1, ptr %5, align 1
  store ptr %2, ptr %6, align 8
  %7 = load ptr, ptr %4, align 8
  %8 = load i8, ptr %5, align 1
  %9 = zext i8 %8 to i32
  %10 = load ptr, ptr %6, align 8
  %11 = call noundef zeroext i1 @_ZN8nanobind6detail8load_intIhLb1EEEbP7_objectjPT_(ptr noundef %7, i32 noundef %9, ptr noundef %10) #20
  ret i1 %11
}